; Function Attrs: nounwind uwtable
define hidden noundef i32 @phpdbg_do_next(ptr nocapture readnone %0) #0 {
  %2 = alloca %struct._zval_struct, align 8
  %3 = load i8, ptr getelementptr inbounds (%struct._zend_phpdbg_globals, ptr @phpdbg_globals, i64 0, i32 30), align 8
  %4 = and i8 %3, 1
  %.not = icmp eq i8 %4, 0
  br i1 %.not, label %5, label %8

5:                                                ; preds = %1
  %6 = load i32, ptr getelementptr inbounds (%struct._zend_phpdbg_globals, ptr @phpdbg_globals, i64 0, i32 39, i64 1), align 4
  %7 = tail call i32 (i32, i32, ptr, ...) @phpdbg_print(i32 noundef 1, i32 noundef %6, ptr noundef nonnull @.str.85) #24
  br label %44

8:                                                ; preds = %1
  %9 = load i64, ptr getelementptr inbounds (%struct._zend_phpdbg_globals, ptr @phpdbg_globals, i64 0, i32 53), align 8
  %10 = or i64 %9, 8192
  store i64 %10, ptr getelementptr inbounds (%struct._zend_phpdbg_globals, ptr @phpdbg_globals, i64 0, i32 53), align 8
  call void @llvm.lifetime.start.p0(i64 16, ptr nonnull %2)
  br label %11

11:                                               ; preds = %.critedge.i, %8
  %.024.in.i = phi ptr [ getelementptr inbounds (%struct._zend_executor_globals, ptr @executor_globals, i64 0, i32 17), %8 ], [ %16, %.critedge.i ]
  %.024.i = load ptr, ptr %.024.in.i, align 8
  %12 = getelementptr inbounds i8, ptr %.024.i, i64 24
  %13 = load ptr, ptr %12, align 8
  %.not.i = icmp eq ptr %13, null
  br i1 %.not.i, label %.critedge.i, label %14

14:                                               ; preds = %11
  %15 = load i8, ptr %13, align 8
  %.not28.i = icmp eq i8 %15, 1
  br i1 %.not28.i, label %.critedge.i, label %17

.critedge.i:                                      ; preds = %14, %11
  %16 = getelementptr inbounds i8, ptr %.024.i, i64 48
  br label %11

17:                                               ; preds = %14
  %18 = getelementptr inbounds i8, ptr %13, i64 88
  %19 = load ptr, ptr %18, align 8
  %20 = or i64 %9, 1056768
  store i64 %20, ptr getelementptr inbounds (%struct._zend_phpdbg_globals, ptr @phpdbg_globals, i64 0, i32 53), align 8
  store ptr %.024.i, ptr getelementptr inbounds (%struct._zend_phpdbg_globals, ptr @phpdbg_globals, i64 0, i32 3), align 8
  %21 = getelementptr inbounds i8, ptr %2, i64 8
  %22 = getelementptr inbounds i8, ptr %13, i64 84
  br label %23

23:                                               ; preds = %37, %17
  %.0.i = phi ptr [ %19, %17 ], [ %38, %37 ]
  %24 = getelementptr inbounds i8, ptr %.0.i, i64 24
  %25 = load i32, ptr %24, align 8
  %26 = load ptr, ptr %.024.i, align 8
  %27 = getelementptr inbounds i8, ptr %26, i64 24
  %28 = load i32, ptr %27, align 8
  %.not29.i = icmp eq i32 %25, %28
  br i1 %.not29.i, label %29, label %32

29:                                               ; preds = %23
  %30 = getelementptr inbounds i8, ptr %.0.i, i64 28
  %31 = load i8, ptr %30, align 4
  switch i8 %31, label %37 [
    i8 62, label %32
    i8 -93, label %32
    i8 -95, label %32
    i8 79, label %32
    i8 -96, label %32
    i8 -90, label %32
  ]

32:                                               ; preds = %29, %29, %29, %29, %29, %29, %23
  %33 = ptrtoint ptr %.0.i to i64
  store ptr %.0.i, ptr %2, align 8
  store i32 13, ptr %21, align 8
  %34 = call ptr @zend_hash_index_update(ptr noundef nonnull getelementptr inbounds (%struct._zend_phpdbg_globals, ptr @phpdbg_globals, i64 0, i32 2), i64 noundef %33, ptr noundef nonnull %2) #24
  %35 = load ptr, ptr %34, align 8
  %36 = icmp ne ptr %35, null
  call void @llvm.assume(i1 %36)
  br label %37

37:                                               ; preds = %32, %29
  %38 = getelementptr inbounds i8, ptr %.0.i, i64 32
  %39 = load ptr, ptr %18, align 8
  %40 = load i32, ptr %22, align 4
  %41 = zext i32 %40 to i64
  %42 = getelementptr inbounds %struct._zend_op, ptr %39, i64 %41
  %43 = icmp ult ptr %38, %42
  br i1 %43, label %23, label %phpdbg_skip_line_helper.exit

phpdbg_skip_line_helper.exit:                     ; preds = %37
  call void @llvm.lifetime.end.p0(i64 16, ptr nonnull %2)
  br label %44

44:                                               ; preds = %phpdbg_skip_line_helper.exit, %5
  %.0 = phi i32 [ 3, %phpdbg_skip_line_helper.exit ], [ 0, %5 ]
  ret i32 %.0
}